; ModuleID = 'bench/git/original/fuzz-credential-from-url-gently.ll'
source_filename = "bench/git/original/fuzz-credential-from-url-gently.ll"
target datalayout = "e-m:e-p270:32:32-p271:32:32-p272:64:64-i64:64-i128:128-f80:128-n8:16:32:64-S128"
target triple = "x86_64-pc-linux-gnu"

%struct.credential = type { %struct.string_list, %struct.strvec, %struct.strvec, %struct.strvec, i16, [2 x i8], %struct.credential_capability, %struct.credential_capability, ptr, ptr, ptr, ptr, ptr, ptr, ptr, i64, ptr }
%struct.string_list = type { ptr, i64, i64, i8, ptr }
%struct.strvec = type { ptr, i64, i64 }
%struct.credential_capability = type { i8, [3 x i8] }

; Function Attrs: nounwind uwtable
define dso_local noundef i32 @LLVMFuzzerTestOneInput(ptr noundef readonly captures(none) %0, i64 noundef %1) local_unnamed_addr #0 {
  %3 = alloca %struct.credential, align 8
  call void @llvm.lifetime.start.p0(i64 200, ptr nonnull %3) #6
  %4 = add i64 %1, 1
  %5 = tail call noalias ptr @malloc(i64 noundef %4) #7
  %.not = icmp eq ptr %5, null
  br i1 %.not, label %9, label %6

6:                                                ; preds = %2
  tail call void @llvm.memcpy.p0.p0.i64(ptr nonnull align 1 %5, ptr align 1 %0, i64 %1, i1 false)
  %7 = getelementptr inbounds nuw i8, ptr %5, i64 %1
  store i8 0, ptr %7, align 1, !tbaa !4
  call void @credential_init(ptr noundef nonnull %3) #6
  %8 = call i32 @credential_from_url_gently(ptr noundef nonnull %3, ptr noundef nonnull %5, i32 noundef 1) #6
  call void @credential_clear(ptr noundef nonnull %3) #6
  call void @free(ptr noundef nonnull %5) #6
  br label %9

9:                                                ; preds = %2, %6
  call void @llvm.lifetime.end.p0(i64 200, ptr nonnull %3) #6
  ret i32 0
}

; Function Attrs: mustprogress nocallback nofree nosync nounwind willreturn memory(argmem: readwrite)
declare void @llvm.lifetime.start.p0(i64 immarg, ptr captures(none)) #1

; Function Attrs: mustprogress nofree nounwind willreturn allockind("alloc,uninitialized") allocsize(0) memory(inaccessiblemem: readwrite)
declare noalias noundef ptr @malloc(i64 noundef) local_unnamed_addr #2

; Function Attrs: mustprogress nocallback nofree nounwind willreturn memory(argmem: readwrite)
declare void @llvm.memcpy.p0.p0.i64(ptr noalias writeonly captures(none), ptr noalias readonly captures(none), i64, i1 immarg) #3

declare void @credential_init(ptr noundef) local_unnamed_addr #4

declare i32 @credential_from_url_gently(ptr noundef, ptr noundef, i32 noundef) local_unnamed_addr #4

declare void @credential_clear(ptr noundef) local_unnamed_addr #4

; Function Attrs: mustprogress nounwind willreturn allockind("free") memory(argmem: readwrite, inaccessiblemem: readwrite)
declare void @free(ptr allocptr noundef captures(none)) local_unnamed_addr #5

; Function Attrs: mustprogress nocallback nofree nosync nounwind willreturn memory(argmem: readwrite)
declare void @llvm.lifetime.end.p0(i64 immarg, ptr captures(none)) #1


!llvm.module.flags = !{!0, !1, !2, !3}

!0 = !{i32 1, !"wchar_size", i32 4}
!1 = !{i32 8, !"PIC Level", i32 2}
!2 = !{i32 7, !"PIE Level", i32 2}
!3 = !{i32 7, !"uwtable", i32 2}
!4 = !{!5, !5, i64 0}
!5 = !{!"omnipotent char", !6, i64 0}
!6 = !{!"Simple C/C++ TBAA"}
